target datalayout = "e-m:e-p270:32:32-p271:32:32-p272:64:64-i64:64-i128:128-f80:128-n8:16:32:64-S128"
target triple = "x86_64-pc-linux-gnu"

%"class.clang::interp::Block" = type { i32, ptr, %"class.std::optional", i8, i8, i8, i8, i8, ptr }
%"class.std::optional" = type { %"struct.std::_Optional_base" }
%"struct.std::_Optional_base" = type { %"struct.std::_Optional_payload" }
%"struct.std::_Optional_payload" = type { %"struct.std::_Optional_payload_base.base", [3 x i8] }
%"struct.std::_Optional_payload_base.base" = type <{ %"union.std::_Optional_payload_base<unsigned int>::_Storage", i8 }>
%"union.std::_Optional_payload_base<unsigned int>::_Storage" = type { i32 }
%"class.clang::interp::Pointer" = type <{ i64, ptr, ptr, %union.anon, i32, [4 x i8] }>
%union.anon = type { %"struct.clang::interp::BlockPointer", [8 x i8] }
%"struct.clang::interp::BlockPointer" = type { ptr, i32 }

; Function Attrs: mustprogress nounwind uwtable
define dso_local void @_ZN5clang6interp5Block10addPointerEPNS0_7PointerE(ptr noundef nonnull align 8 dereferenceable(40) %0, ptr noundef %1) #0 align 2 {
  %3 = alloca ptr, align 8
  %4 = alloca ptr, align 8
  store ptr %0, ptr %3, align 8
  store ptr %1, ptr %4, align 8
  %5 = load ptr, ptr %3, align 8
  %6 = getelementptr inbounds nuw %"class.clang::interp::Block", ptr %5, i32 0, i32 3
  %7 = load i8, ptr %6, align 8
  %8 = trunc i8 %7 to i1
  br i1 %8, label %9, label %10

9:                                                ; preds = %2
  br label %28

10:                                               ; preds = %2
  %11 = getelementptr inbounds nuw %"class.clang::interp::Block", ptr %5, i32 0, i32 1
  %12 = load ptr, ptr %11, align 8
  %13 = icmp ne ptr %12, null
  br i1 %13, label %14, label %19

14:                                               ; preds = %10
  %15 = load ptr, ptr %4, align 8
  %16 = getelementptr inbounds nuw %"class.clang::interp::Block", ptr %5, i32 0, i32 1
  %17 = load ptr, ptr %16, align 8
  %18 = getelementptr inbounds nuw %"class.clang::interp::Pointer", ptr %17, i32 0, i32 1
  store ptr %15, ptr %18, align 8
  br label %19

19:                                               ; preds = %14, %10
  %20 = getelementptr inbounds nuw %"class.clang::interp::Block", ptr %5, i32 0, i32 1
  %21 = load ptr, ptr %20, align 8
  %22 = load ptr, ptr %4, align 8
  %23 = getelementptr inbounds nuw %"class.clang::interp::Pointer", ptr %22, i32 0, i32 2
  store ptr %21, ptr %23, align 8
  %24 = load ptr, ptr %4, align 8
  %25 = getelementptr inbounds nuw %"class.clang::interp::Pointer", ptr %24, i32 0, i32 1
  store ptr null, ptr %25, align 8
  %26 = load ptr, ptr %4, align 8
  %27 = getelementptr inbounds nuw %"class.clang::interp::Block", ptr %5, i32 0, i32 1
  store ptr %26, ptr %27, align 8
  br label %28

28:                                               ; preds = %19, %9
  ret void
}

; Function Attrs: mustprogress nounwind uwtable
define dso_local void @_ZN5clang6interp5Block13removePointerEPNS0_7PointerE(ptr noundef nonnull align 8 dereferenceable(40) %0, ptr noundef %1) #0 align 2 {
  %3 = alloca ptr, align 8
  %4 = alloca ptr, align 8
  store ptr %0, ptr %3, align 8
  store ptr %1, ptr %4, align 8
  %5 = load ptr, ptr %3, align 8
  %6 = getelementptr inbounds nuw %"class.clang::interp::Block", ptr %5, i32 0, i32 3
  %7 = load i8, ptr %6, align 8
  %8 = trunc i8 %7 to i1
  br i1 %8, label %9, label %10

9:                                                ; preds = %2
  br label %50

10:                                               ; preds = %2
  %11 = getelementptr inbounds nuw %"class.clang::interp::Block", ptr %5, i32 0, i32 1
  %12 = load ptr, ptr %11, align 8
  %13 = load ptr, ptr %4, align 8
  %14 = icmp eq ptr %12, %13
  br i1 %14, label %15, label %20

15:                                               ; preds = %10
  %16 = load ptr, ptr %4, align 8
  %17 = getelementptr inbounds nuw %"class.clang::interp::Pointer", ptr %16, i32 0, i32 2
  %18 = load ptr, ptr %17, align 8
  %19 = getelementptr inbounds nuw %"class.clang::interp::Block", ptr %5, i32 0, i32 1
  store ptr %18, ptr %19, align 8
  br label %20

20:                                               ; preds = %15, %10
  %21 = load ptr, ptr %4, align 8
  %22 = getelementptr inbounds nuw %"class.clang::interp::Pointer", ptr %21, i32 0, i32 1
  %23 = load ptr, ptr %22, align 8
  %24 = icmp ne ptr %23, null
  br i1 %24, label %25, label %33

25:                                               ; preds = %20
  %26 = load ptr, ptr %4, align 8
  %27 = getelementptr inbounds nuw %"class.clang::interp::Pointer", ptr %26, i32 0, i32 2
  %28 = load ptr, ptr %27, align 8
  %29 = load ptr, ptr %4, align 8
  %30 = getelementptr inbounds nuw %"class.clang::interp::Pointer", ptr %29, i32 0, i32 1
  %31 = load ptr, ptr %30, align 8
  %32 = getelementptr inbounds nuw %"class.clang::interp::Pointer", ptr %31, i32 0, i32 2
  store ptr %28, ptr %32, align 8
  br label %33

33:                                               ; preds = %25, %20
  %34 = load ptr, ptr %4, align 8
  %35 = getelementptr inbounds nuw %"class.clang::interp::Pointer", ptr %34, i32 0, i32 2
  %36 = load ptr, ptr %35, align 8
  %37 = icmp ne ptr %36, null
  br i1 %37, label %38, label %46

38:                                               ; preds = %33
  %39 = load ptr, ptr %4, align 8
  %40 = getelementptr inbounds nuw %"class.clang::interp::Pointer", ptr %39, i32 0, i32 1
  %41 = load ptr, ptr %40, align 8
  %42 = load ptr, ptr %4, align 8
  %43 = getelementptr inbounds nuw %"class.clang::interp::Pointer", ptr %42, i32 0, i32 2
  %44 = load ptr, ptr %43, align 8
  %45 = getelementptr inbounds nuw %"class.clang::interp::Pointer", ptr %44, i32 0, i32 1
  store ptr %41, ptr %45, align 8
  br label %46

46:                                               ; preds = %38, %33
  %47 = load ptr, ptr %4, align 8
  %48 = getelementptr inbounds nuw %"class.clang::interp::Pointer", ptr %47, i32 0, i32 3
  %49 = getelementptr inbounds nuw %"struct.clang::interp::BlockPointer", ptr %48, i32 0, i32 0
  store ptr null, ptr %49, align 8
  br label %50

50:                                               ; preds = %46, %9
  ret void
}

; Function Attrs: mustprogress nounwind uwtable
define dso_local void @_ZN5clang6interp5Block14replacePointerEPNS0_7PointerES3_(ptr noundef nonnull align 8 dereferenceable(40) %0, ptr noundef %1, ptr noundef %2) #0 align 2 {
  %4 = alloca ptr, align 8
  %5 = alloca ptr, align 8
  %6 = alloca ptr, align 8
  store ptr %0, ptr %4, align 8
  store ptr %1, ptr %5, align 8
  store ptr %2, ptr %6, align 8
  %7 = load ptr, ptr %4, align 8
  %8 = getelementptr inbounds nuw %"class.clang::interp::Block", ptr %7, i32 0, i32 3
  %9 = load i8, ptr %8, align 8
  %10 = trunc i8 %9 to i1
  br i1 %10, label %11, label %12

11:                                               ; preds = %3
  br label %18

12:                                               ; preds = %3
  %13 = load ptr, ptr %5, align 8
  call void @_ZN5clang6interp5Block13removePointerEPNS0_7PointerE(ptr noundef nonnull align 8 dereferenceable(40) %7, ptr noundef %13)
  %14 = load ptr, ptr %6, align 8
  call void @_ZN5clang6interp5Block10addPointerEPNS0_7PointerE(ptr noundef nonnull align 8 dereferenceable(40) %7, ptr noundef %14)
  %15 = load ptr, ptr %5, align 8
  %16 = getelementptr inbounds nuw %"class.clang::interp::Pointer", ptr %15, i32 0, i32 3
  %17 = getelementptr inbounds nuw %"struct.clang::interp::BlockPointer", ptr %16, i32 0, i32 0
  store ptr null, ptr %17, align 8
  br label %18

18:                                               ; preds = %12, %11
  ret void
}