; Function Attrs: mustprogress nofree norecurse nosync nounwind willreturn memory(write, argmem: readwrite, inaccessiblemem: none) uwtable
define dso_local void @_ZN5clang6interp5Block14replacePointerEPNS0_7PointerES3_(ptr nocapture noundef nonnull align 8 dereferenceable(40) %0, ptr noundef %1, ptr noundef %2) local_unnamed_addr #0 align 2 {
  %4 = getelementptr inbounds nuw i8, ptr %0, i64 24
  %5 = load i8, ptr %4, align 8
  %6 = trunc i8 %5 to i1
  br i1 %6, label %32, label %7

7:                                                ; preds = %3
  %8 = getelementptr inbounds nuw i8, ptr %0, i64 8
  %9 = load ptr, ptr %8, align 8
  %10 = icmp eq ptr %9, %1
  %11 = getelementptr inbounds nuw i8, ptr %1, i64 16
  %12 = load ptr, ptr %11, align 8
  br i1 %10, label %13, label %._crit_edge

13:                                               ; preds = %7
  store ptr %12, ptr %8, align 8
  br label %._crit_edge

._crit_edge:                                      ; preds = %7, %13
  %14 = getelementptr inbounds nuw i8, ptr %1, i64 8
  %15 = load ptr, ptr %14, align 8
  %.not.i = icmp eq ptr %15, null
  br i1 %.not.i, label %._crit_edge.i, label %16

16:                                               ; preds = %._crit_edge
  %17 = getelementptr inbounds nuw i8, ptr %15, i64 16
  store ptr %12, ptr %17, align 8
  br label %._crit_edge.i

._crit_edge.i:                                    ; preds = %16, %._crit_edge
  %.not12.i = icmp eq ptr %12, null
  br i1 %.not12.i, label %_ZN5clang6interp5Block13removePointerEPNS0_7PointerE.exit, label %18

18:                                               ; preds = %._crit_edge.i
  %19 = load ptr, ptr %14, align 8
  %20 = getelementptr inbounds nuw i8, ptr %12, i64 8
  store ptr %19, ptr %20, align 8
  br label %_ZN5clang6interp5Block13removePointerEPNS0_7PointerE.exit

_ZN5clang6interp5Block13removePointerEPNS0_7PointerE.exit: ; preds = %._crit_edge.i, %18
  %21 = getelementptr inbounds nuw i8, ptr %1, i64 24
  store ptr null, ptr %21, align 8
  %22 = load i8, ptr %4, align 8
  %23 = trunc i8 %22 to i1
  br i1 %23, label %_ZN5clang6interp5Block10addPointerEPNS0_7PointerE.exit, label %24

24:                                               ; preds = %_ZN5clang6interp5Block13removePointerEPNS0_7PointerE.exit
  %25 = load ptr, ptr %8, align 8
  %.not.i4 = icmp eq ptr %25, null
  br i1 %.not.i4, label %28, label %26

26:                                               ; preds = %24
  %27 = getelementptr inbounds nuw i8, ptr %25, i64 8
  store ptr %2, ptr %27, align 8
  %.pre.i5 = load ptr, ptr %8, align 8
  br label %28

28:                                               ; preds = %26, %24
  %29 = phi ptr [ %.pre.i5, %26 ], [ null, %24 ]
  %30 = getelementptr inbounds nuw i8, ptr %2, i64 16
  store ptr %29, ptr %30, align 8
  %31 = getelementptr inbounds nuw i8, ptr %2, i64 8
  store ptr null, ptr %31, align 8
  store ptr %2, ptr %8, align 8
  br label %_ZN5clang6interp5Block10addPointerEPNS0_7PointerE.exit

_ZN5clang6interp5Block10addPointerEPNS0_7PointerE.exit: ; preds = %_ZN5clang6interp5Block13removePointerEPNS0_7PointerE.exit, %28
  store ptr null, ptr %21, align 8
  br label %32

32:                                               ; preds = %3, %_ZN5clang6interp5Block10addPointerEPNS0_7PointerE.exit
  ret void
}